target datalayout = "e-m:e-p270:32:32-p271:32:32-p272:64:64-i64:64-i128:128-f80:128-n8:16:32:64-S128"
target triple = "x86_64-pc-linux-gnu"

%struct.Color = type { i8, i8, i8, i8 }
%struct.Image = type { ptr, i32, i32, i32, i32 }
%struct.Vector2 = type { float, float }

; Function Attrs: nounwind uwtable
define void @GenImageCellular(ptr dead_on_unwind noalias writable sret(%struct.Image) align 8 %0, i32 noundef %1, i32 noundef %2, i32 noundef %3) #0 {
  %5 = alloca i32, align 4
  %6 = alloca i32, align 4
  %7 = alloca i32, align 4
  %8 = alloca ptr, align 8
  %9 = alloca i32, align 4
  %10 = alloca i32, align 4
  %11 = alloca i32, align 4
  %12 = alloca ptr, align 8
  %13 = alloca i32, align 4
  %14 = alloca i32, align 4
  %15 = alloca i32, align 4
  %16 = alloca %struct.Vector2, align 4
  %17 = alloca i32, align 4
  %18 = alloca i32, align 4
  %19 = alloca i32, align 4
  %20 = alloca i32, align 4
  %21 = alloca i32, align 4
  %22 = alloca float, align 4
  %23 = alloca i32, align 4
  %24 = alloca i32, align 4
  %25 = alloca %struct.Vector2, align 4
  %26 = alloca float, align 4
  %27 = alloca i32, align 4
  %28 = alloca %struct.Color, align 1
  store i32 %1, ptr %5, align 4
  store i32 %2, ptr %6, align 4
  store i32 %3, ptr %7, align 4
  call void @llvm.lifetime.start.p0(i64 8, ptr %8) #19
  %29 = load i32, ptr %5, align 4
  %30 = load i32, ptr %6, align 4
  %31 = mul nsw i32 %29, %30
  %32 = sext i32 %31 to i64
  %33 = mul i64 %32, 4
  %34 = call noalias ptr @malloc(i64 noundef %33) #21
  store ptr %34, ptr %8, align 8
  call void @llvm.lifetime.start.p0(i64 4, ptr %9) #19
  %35 = load i32, ptr %5, align 4
  %36 = load i32, ptr %7, align 4
  %37 = sdiv i32 %35, %36
  store i32 %37, ptr %9, align 4
  call void @llvm.lifetime.start.p0(i64 4, ptr %10) #19
  %38 = load i32, ptr %6, align 4
  %39 = load i32, ptr %7, align 4
  %40 = sdiv i32 %38, %39
  store i32 %40, ptr %10, align 4
  call void @llvm.lifetime.start.p0(i64 4, ptr %11) #19
  %41 = load i32, ptr %9, align 4
  %42 = load i32, ptr %10, align 4
  %43 = mul nsw i32 %41, %42
  store i32 %43, ptr %11, align 4
  call void @llvm.lifetime.start.p0(i64 8, ptr %12) #19
  %44 = load i32, ptr %11, align 4
  %45 = sext i32 %44 to i64
  %46 = mul i64 %45, 8
  %47 = call noalias ptr @malloc(i64 noundef %46) #21
  store ptr %47, ptr %12, align 8
  call void @llvm.lifetime.start.p0(i64 4, ptr %13) #19
  store i32 0, ptr %13, align 4
  br label %48

48:                                               ; preds = %82, %4
  %49 = load i32, ptr %13, align 4
  %50 = load i32, ptr %11, align 4
  %51 = icmp slt i32 %49, %50
  br i1 %51, label %53, label %52

52:                                               ; preds = %48
  call void @llvm.lifetime.end.p0(i64 4, ptr %13) #19
  br label %85

53:                                               ; preds = %48
  call void @llvm.lifetime.start.p0(i64 4, ptr %14) #19
  %54 = load i32, ptr %13, align 4
  %55 = load i32, ptr %9, align 4
  %56 = sdiv i32 %54, %55
  %57 = load i32, ptr %7, align 4
  %58 = mul nsw i32 %56, %57
  %59 = load i32, ptr %7, align 4
  %60 = sub nsw i32 %59, 1
  %61 = call i32 @GetRandomValue(i32 noundef 0, i32 noundef %60)
  %62 = add nsw i32 %58, %61
  store i32 %62, ptr %14, align 4
  call void @llvm.lifetime.start.p0(i64 4, ptr %15) #19
  %63 = load i32, ptr %13, align 4
  %64 = load i32, ptr %9, align 4
  %65 = srem i32 %63, %64
  %66 = load i32, ptr %7, align 4
  %67 = mul nsw i32 %65, %66
  %68 = load i32, ptr %7, align 4
  %69 = sub nsw i32 %68, 1
  %70 = call i32 @GetRandomValue(i32 noundef 0, i32 noundef %69)
  %71 = add nsw i32 %67, %70
  store i32 %71, ptr %15, align 4
  %72 = load ptr, ptr %12, align 8
  %73 = load i32, ptr %13, align 4
  %74 = sext i32 %73 to i64
  %75 = getelementptr inbounds %struct.Vector2, ptr %72, i64 %74
  %76 = getelementptr inbounds nuw %struct.Vector2, ptr %16, i32 0, i32 0
  %77 = load i32, ptr %15, align 4
  %78 = sitofp i32 %77 to float
  store float %78, ptr %76, align 4
  %79 = getelementptr inbounds nuw %struct.Vector2, ptr %16, i32 0, i32 1
  %80 = load i32, ptr %14, align 4
  %81 = sitofp i32 %80 to float
  store float %81, ptr %79, align 4
  call void @llvm.memcpy.p0.p0.i64(ptr align 4 %75, ptr align 4 %16, i64 8, i1 false)
  call void @llvm.lifetime.end.p0(i64 4, ptr %15) #19
  call void @llvm.lifetime.end.p0(i64 4, ptr %14) #19
  br label %82

82:                                               ; preds = %53
  %83 = load i32, ptr %13, align 4
  %84 = add nsw i32 %83, 1
  store i32 %84, ptr %13, align 4
  br label %48

85:                                               ; preds = %52
  call void @llvm.lifetime.start.p0(i64 4, ptr %17) #19
  store i32 0, ptr %17, align 4
  br label %86

86:                                               ; preds = %210, %85
  %87 = load i32, ptr %17, align 4
  %88 = load i32, ptr %6, align 4
  %89 = icmp slt i32 %87, %88
  br i1 %89, label %91, label %90

90:                                               ; preds = %86
  store i32 5, ptr %18, align 4
  call void @llvm.lifetime.end.p0(i64 4, ptr %17) #19
  br label %213

91:                                               ; preds = %86
  call void @llvm.lifetime.start.p0(i64 4, ptr %19) #19
  %92 = load i32, ptr %17, align 4
  %93 = load i32, ptr %7, align 4
  %94 = sdiv i32 %92, %93
  store i32 %94, ptr %19, align 4
  call void @llvm.lifetime.start.p0(i64 4, ptr %20) #19
  store i32 0, ptr %20, align 4
  br label %95

95:                                               ; preds = %206, %91
  %96 = load i32, ptr %20, align 4
  %97 = load i32, ptr %5, align 4
  %98 = icmp slt i32 %96, %97
  br i1 %98, label %100, label %99

99:                                               ; preds = %95
  store i32 8, ptr %18, align 4
  call void @llvm.lifetime.end.p0(i64 4, ptr %20) #19
  br label %209

100:                                              ; preds = %95
  call void @llvm.lifetime.start.p0(i64 4, ptr %21) #19
  %101 = load i32, ptr %20, align 4
  %102 = load i32, ptr %7, align 4
  %103 = sdiv i32 %101, %102
  store i32 %103, ptr %21, align 4
  call void @llvm.lifetime.start.p0(i64 4, ptr %22) #19
  store float 6.553600e+04, ptr %22, align 4
  call void @llvm.lifetime.start.p0(i64 4, ptr %23) #19
  store i32 -1, ptr %23, align 4
  br label %104

104:                                              ; preds = %174, %100
  %105 = load i32, ptr %23, align 4
  %106 = icmp slt i32 %105, 2
  br i1 %106, label %108, label %107

107:                                              ; preds = %104
  store i32 11, ptr %18, align 4
  call void @llvm.lifetime.end.p0(i64 4, ptr %23) #19
  br label %177

108:                                              ; preds = %104
  %109 = load i32, ptr %21, align 4
  %110 = load i32, ptr %23, align 4
  %111 = add nsw i32 %109, %110
  %112 = icmp slt i32 %111, 0
  br i1 %112, label %119, label %113

113:                                              ; preds = %108
  %114 = load i32, ptr %21, align 4
  %115 = load i32, ptr %23, align 4
  %116 = add nsw i32 %114, %115
  %117 = load i32, ptr %9, align 4
  %118 = icmp sge i32 %116, %117
  br i1 %118, label %119, label %120

119:                                              ; preds = %113, %108
  br label %174

120:                                              ; preds = %113
  call void @llvm.lifetime.start.p0(i64 4, ptr %24) #19
  store i32 -1, ptr %24, align 4
  br label %121

121:                                              ; preds = %170, %120
  %122 = load i32, ptr %24, align 4
  %123 = icmp slt i32 %122, 2
  br i1 %123, label %125, label %124

124:                                              ; preds = %121
  store i32 14, ptr %18, align 4
  call void @llvm.lifetime.end.p0(i64 4, ptr %24) #19
  br label %173

125:                                              ; preds = %121
  %126 = load i32, ptr %19, align 4
  %127 = load i32, ptr %24, align 4
  %128 = add nsw i32 %126, %127
  %129 = icmp slt i32 %128, 0
  br i1 %129, label %136, label %130

130:                                              ; preds = %125
  %131 = load i32, ptr %19, align 4
  %132 = load i32, ptr %24, align 4
  %133 = add nsw i32 %131, %132
  %134 = load i32, ptr %10, align 4
  %135 = icmp sge i32 %133, %134
  br i1 %135, label %136, label %137

136:                                              ; preds = %130, %125
  br label %170

137:                                              ; preds = %130
  call void @llvm.lifetime.start.p0(i64 8, ptr %25) #19
  %138 = load ptr, ptr %12, align 8
  %139 = load i32, ptr %19, align 4
  %140 = load i32, ptr %24, align 4
  %141 = add nsw i32 %139, %140
  %142 = load i32, ptr %9, align 4
  %143 = mul nsw i32 %141, %142
  %144 = load i32, ptr %21, align 4
  %145 = add nsw i32 %143, %144
  %146 = load i32, ptr %23, align 4
  %147 = add nsw i32 %145, %146
  %148 = sext i32 %147 to i64
  %149 = getelementptr inbounds %struct.Vector2, ptr %138, i64 %148
  call void @llvm.memcpy.p0.p0.i64(ptr align 4 %25, ptr align 4 %149, i64 8, i1 false)
  call void @llvm.lifetime.start.p0(i64 4, ptr %26) #19
  %150 = load i32, ptr %20, align 4
  %151 = getelementptr inbounds nuw %struct.Vector2, ptr %25, i32 0, i32 0
  %152 = load float, ptr %151, align 4
  %153 = fptosi float %152 to i32
  %154 = sub nsw i32 %150, %153
  %155 = sitofp i32 %154 to double
  %156 = load i32, ptr %17, align 4
  %157 = getelementptr inbounds nuw %struct.Vector2, ptr %25, i32 0, i32 1
  %158 = load float, ptr %157, align 4
  %159 = fptosi float %158 to i32
  %160 = sub nsw i32 %156, %159
  %161 = sitofp i32 %160 to double
  %162 = call double @hypot(double noundef %155, double noundef %161) #19
  %163 = fptrunc double %162 to float
  store float %163, ptr %26, align 4
  %164 = load float, ptr %22, align 4
  %165 = fpext float %164 to double
  %166 = load float, ptr %26, align 4
  %167 = fpext float %166 to double
  %168 = call double @llvm.minnum.f64(double %165, double %167)
  %169 = fptrunc double %168 to float
  store float %169, ptr %22, align 4
  call void @llvm.lifetime.end.p0(i64 4, ptr %26) #19
  call void @llvm.lifetime.end.p0(i64 8, ptr %25) #19
  br label %170

170:                                              ; preds = %137, %136
  %171 = load i32, ptr %24, align 4
  %172 = add nsw i32 %171, 1
  store i32 %172, ptr %24, align 4
  br label %121

173:                                              ; preds = %124
  br label %174

174:                                              ; preds = %173, %119
  %175 = load i32, ptr %23, align 4
  %176 = add nsw i32 %175, 1
  store i32 %176, ptr %23, align 4
  br label %104

177:                                              ; preds = %107
  call void @llvm.lifetime.start.p0(i64 4, ptr %27) #19
  %178 = load float, ptr %22, align 4
  %179 = fmul float %178, 2.560000e+02
  %180 = load i32, ptr %7, align 4
  %181 = sitofp i32 %180 to float
  %182 = fdiv float %179, %181
  %183 = fptosi float %182 to i32
  store i32 %183, ptr %27, align 4
  %184 = load i32, ptr %27, align 4
  %185 = icmp sgt i32 %184, 255
  br i1 %185, label %186, label %187

186:                                              ; preds = %177
  store i32 255, ptr %27, align 4
  br label %187

187:                                              ; preds = %186, %177
  %188 = load ptr, ptr %8, align 8
  %189 = load i32, ptr %17, align 4
  %190 = load i32, ptr %5, align 4
  %191 = mul nsw i32 %189, %190
  %192 = load i32, ptr %20, align 4
  %193 = add nsw i32 %191, %192
  %194 = sext i32 %193 to i64
  %195 = getelementptr inbounds %struct.Color, ptr %188, i64 %194
  %196 = getelementptr inbounds nuw %struct.Color, ptr %28, i32 0, i32 0
  %197 = load i32, ptr %27, align 4
  %198 = trunc i32 %197 to i8
  store i8 %198, ptr %196, align 1
  %199 = getelementptr inbounds nuw %struct.Color, ptr %28, i32 0, i32 1
  %200 = load i32, ptr %27, align 4
  %201 = trunc i32 %200 to i8
  store i8 %201, ptr %199, align 1
  %202 = getelementptr inbounds nuw %struct.Color, ptr %28, i32 0, i32 2
  %203 = load i32, ptr %27, align 4
  %204 = trunc i32 %203 to i8
  store i8 %204, ptr %202, align 1
  %205 = getelementptr inbounds nuw %struct.Color, ptr %28, i32 0, i32 3
  store i8 -1, ptr %205, align 1
  call void @llvm.memcpy.p0.p0.i64(ptr align 1 %195, ptr align 1 %28, i64 4, i1 false)
  call void @llvm.lifetime.end.p0(i64 4, ptr %27) #19
  call void @llvm.lifetime.end.p0(i64 4, ptr %22) #19
  call void @llvm.lifetime.end.p0(i64 4, ptr %21) #19
  br label %206

206:                                              ; preds = %187
  %207 = load i32, ptr %20, align 4
  %208 = add nsw i32 %207, 1
  store i32 %208, ptr %20, align 4
  br label %95

209:                                              ; preds = %99
  call void @llvm.lifetime.end.p0(i64 4, ptr %19) #19
  br label %210

210:                                              ; preds = %209
  %211 = load i32, ptr %17, align 4
  %212 = add nsw i32 %211, 1
  store i32 %212, ptr %17, align 4
  br label %86

213:                                              ; preds = %90
  %214 = load ptr, ptr %12, align 8
  call void @free(ptr noundef %214) #19
  %215 = getelementptr inbounds nuw %struct.Image, ptr %0, i32 0, i32 0
  %216 = load ptr, ptr %8, align 8
  store ptr %216, ptr %215, align 8
  %217 = getelementptr inbounds nuw %struct.Image, ptr %0, i32 0, i32 1
  %218 = load i32, ptr %5, align 4
  store i32 %218, ptr %217, align 8
  %219 = getelementptr inbounds nuw %struct.Image, ptr %0, i32 0, i32 2
  %220 = load i32, ptr %6, align 4
  store i32 %220, ptr %219, align 4
  %221 = getelementptr inbounds nuw %struct.Image, ptr %0, i32 0, i32 3
  store i32 1, ptr %221, align 8
  %222 = getelementptr inbounds nuw %struct.Image, ptr %0, i32 0, i32 4
  store i32 7, ptr %222, align 4
  store i32 1, ptr %18, align 4
  call void @llvm.lifetime.end.p0(i64 8, ptr %12) #19
  call void @llvm.lifetime.end.p0(i64 4, ptr %11) #19
  call void @llvm.lifetime.end.p0(i64 4, ptr %10) #19
  call void @llvm.lifetime.end.p0(i64 4, ptr %9) #19
  call void @llvm.lifetime.end.p0(i64 8, ptr %8) #19
  ret void
}