; Function Attrs: nounwind uwtable
define void @GenImageCellular(ptr dead_on_unwind noalias writable writeonly sret(%struct.Image) align 8 captures(none) %0, i32 noundef %1, i32 noundef %2, i32 noundef %3) local_unnamed_addr #4 {
  %5 = mul nsw i32 %2, %1
  %6 = sext i32 %5 to i64
  %7 = shl nsw i64 %6, 2
  %8 = tail call noalias ptr @malloc(i64 noundef %7) #55
  %9 = sdiv i32 %1, %3
  %10 = sdiv i32 %2, %3
  %11 = mul nsw i32 %10, %9
  %12 = sext i32 %11 to i64
  %13 = shl nsw i64 %12, 3
  %14 = tail call noalias ptr @malloc(i64 noundef %13) #55
  %15 = icmp sgt i32 %11, 0
  br i1 %15, label %.lr.ph, label %.preheader87

.lr.ph:                                           ; preds = %4
  %16 = add nsw i32 %3, -1
  %wide.trip.count = zext nneg i32 %11 to i64
  br label %56

.preheader87:                                     ; preds = %56, %4
  %17 = icmp sgt i32 %2, 0
  br i1 %17, label %.lr.ph96, label %._crit_edge97

.lr.ph96:                                         ; preds = %.preheader87
  %18 = icmp sgt i32 %1, 0
  %19 = sitofp i32 %3 to float
  br i1 %18, label %.lr.ph94.us.preheader, label %._crit_edge97

.lr.ph94.us.preheader:                            ; preds = %.lr.ph96
  %20 = sext i32 %10 to i64
  %21 = zext nneg i32 %1 to i64
  %wide.trip.count113 = zext nneg i32 %2 to i64
  br label %.lr.ph94.us

.lr.ph94.us:                                      ; preds = %.lr.ph94.us.preheader, %._crit_edge.us
  %indvars.iv110 = phi i64 [ 0, %.lr.ph94.us.preheader ], [ %indvars.iv.next111, %._crit_edge.us ]
  %22 = trunc nuw nsw i64 %indvars.iv110 to i32
  %23 = sdiv i32 %22, %3
  %24 = mul nuw nsw i64 %indvars.iv110, %21
  %25 = sext i32 %23 to i64
  %invariant.gep = getelementptr inbounds nuw %struct.Color, ptr %8, i64 %24
  br label %26

26:                                               ; preds = %.lr.ph94.us, %29
  %indvars.iv105 = phi i64 [ 0, %.lr.ph94.us ], [ %indvars.iv.next106, %29 ]
  %27 = trunc nuw nsw i64 %indvars.iv105 to i32
  %28 = sdiv i32 %27, %3
  br label %34

29:                                               ; preds = %.loopexit.us
  %30 = fmul float %.1.us, 2.560000e+02
  %31 = fdiv float %30, %19
  %32 = fptosi float %31 to i32
  %spec.store.select.us = tail call i32 @llvm.smin.i32(i32 %32, i32 255)
  %gep = getelementptr inbounds nuw %struct.Color, ptr %invariant.gep, i64 %indvars.iv105
  %33 = trunc i32 %spec.store.select.us to i8
  store i8 %33, ptr %gep, align 1
  %.sroa.2.0..sroa_idx.us = getelementptr inbounds nuw i8, ptr %gep, i64 1
  store i8 %33, ptr %.sroa.2.0..sroa_idx.us, align 1
  %.sroa.3.0..sroa_idx.us = getelementptr inbounds nuw i8, ptr %gep, i64 2
  store i8 %33, ptr %.sroa.3.0..sroa_idx.us, align 1
  %.sroa.4.0..sroa_idx.us = getelementptr inbounds nuw i8, ptr %gep, i64 3
  store i8 -1, ptr %.sroa.4.0..sroa_idx.us, align 1
  %indvars.iv.next106 = add nuw nsw i64 %indvars.iv105, 1
  %exitcond109.not = icmp eq i64 %indvars.iv.next106, %21
  br i1 %exitcond109.not, label %._crit_edge.us, label %26

34:                                               ; preds = %.loopexit.us, %26
  %.07792.us = phi float [ 6.553600e+04, %26 ], [ %.1.us, %.loopexit.us ]
  %.07891.us = phi i32 [ -1, %26 ], [ %37, %.loopexit.us ]
  %35 = add nsw i32 %.07891.us, %28
  %36 = icmp sgt i32 %35, -1
  %.not.us = icmp slt i32 %35, %9
  %or.cond.us = and i1 %36, %.not.us
  br i1 %or.cond.us, label %.preheader.us, label %.loopexit.us

.loopexit.us:                                     ; preds = %55, %34
  %.1.us = phi float [ %.07792.us, %34 ], [ %.3.us, %55 ]
  %37 = add nsw i32 %.07891.us, 1
  %exitcond104.not = icmp eq i32 %37, 2
  br i1 %exitcond104.not, label %29, label %34

.preheader.us:                                    ; preds = %34, %55
  %indvars.iv100 = phi i64 [ %indvars.iv.next101, %55 ], [ -1, %34 ]
  %.290.us = phi float [ %.3.us, %55 ], [ %.07792.us, %34 ]
  %38 = add nsw i64 %indvars.iv100, %25
  %39 = icmp sgt i64 %38, -1
  %.not85.us = icmp slt i64 %38, %20
  %or.cond86.us = and i1 %39, %.not85.us
  br i1 %or.cond86.us, label %40, label %55

40:                                               ; preds = %.preheader.us
  %41 = trunc i64 %38 to i32
  %42 = mul i32 %9, %41
  %43 = add i32 %35, %42
  %44 = sext i32 %43 to i64
  %45 = getelementptr inbounds %struct.Vector2, ptr %14, i64 %44
  %.sroa.04.0.copyload.us = load float, ptr %45, align 4
  %.sroa.45.0..sroa_idx.us = getelementptr inbounds nuw i8, ptr %45, i64 4
  %.sroa.45.0.copyload.us = load float, ptr %.sroa.45.0..sroa_idx.us, align 4
  %46 = fptosi float %.sroa.04.0.copyload.us to i32
  %47 = sub nsw i32 %27, %46
  %48 = sitofp i32 %47 to double
  %49 = fptosi float %.sroa.45.0.copyload.us to i32
  %50 = sub nsw i32 %22, %49
  %51 = sitofp i32 %50 to double
  %52 = tail call double @hypot(double noundef %48, double noundef %51) #54
  %53 = fptrunc double %52 to float
  %54 = tail call float @llvm.minnum.f32(float %.290.us, float %53)
  br label %55

55:                                               ; preds = %40, %.preheader.us
  %.3.us = phi float [ %.290.us, %.preheader.us ], [ %54, %40 ]
  %indvars.iv.next101 = add nsw i64 %indvars.iv100, 1
  %exitcond103.not = icmp eq i64 %indvars.iv.next101, 2
  br i1 %exitcond103.not, label %.loopexit.us, label %.preheader.us

._crit_edge.us:                                   ; preds = %29
  %indvars.iv.next111 = add nuw nsw i64 %indvars.iv110, 1
  %exitcond114.not = icmp eq i64 %indvars.iv.next111, %wide.trip.count113
  br i1 %exitcond114.not, label %._crit_edge97, label %.lr.ph94.us

56:                                               ; preds = %.lr.ph, %56
  %indvars.iv = phi i64 [ 0, %.lr.ph ], [ %indvars.iv.next, %56 ]
  %57 = trunc nuw nsw i64 %indvars.iv to i32
  %58 = sdiv i32 %57, %9
  %59 = mul nsw i32 %58, %3
  %60 = tail call i32 @GetRandomValue(i32 noundef 0, i32 noundef %16) #54
  %61 = add nsw i32 %59, %60
  %62 = srem i32 %57, %9
  %63 = mul nsw i32 %62, %3
  %64 = tail call i32 @GetRandomValue(i32 noundef 0, i32 noundef %16) #54
  %65 = add nsw i32 %63, %64
  %66 = getelementptr inbounds nuw %struct.Vector2, ptr %14, i64 %indvars.iv
  %67 = sitofp i32 %65 to float
  %68 = sitofp i32 %61 to float
  store float %67, ptr %66, align 4
  %.sroa.235.0..sroa_idx = getelementptr inbounds nuw i8, ptr %66, i64 4
  store float %68, ptr %.sroa.235.0..sroa_idx, align 4
  %indvars.iv.next = add nuw nsw i64 %indvars.iv, 1
  %exitcond.not = icmp eq i64 %indvars.iv.next, %wide.trip.count
  br i1 %exitcond.not, label %.preheader87, label %56

._crit_edge97:                                    ; preds = %._crit_edge.us, %.lr.ph96, %.preheader87
  tail call void @free(ptr noundef %14) #54
  store ptr %8, ptr %0, align 8
  %69 = getelementptr inbounds nuw i8, ptr %0, i64 8
  store i32 %1, ptr %69, align 8
  %70 = getelementptr inbounds nuw i8, ptr %0, i64 12
  store i32 %2, ptr %70, align 4
  %71 = getelementptr inbounds nuw i8, ptr %0, i64 16
  store i32 1, ptr %71, align 8
  %72 = getelementptr inbounds nuw i8, ptr %0, i64 20
  store i32 7, ptr %72, align 4
  ret void
}